target datalayout = "e-m:e-p270:32:32-p271:32:32-p272:64:64-i64:64-i128:128-f80:128-n8:16:32:64-S128"
target triple = "x86_64-pc-linux-gnu"

%"struct.vcpkg::StringView" = type { ptr, i64 }
%"struct.vcpkg::LocalizedString" = type { %"class.std::__cxx11::basic_string" }
%"class.std::__cxx11::basic_string" = type { %"struct.std::__cxx11::basic_string<char>::_Alloc_hider", i64, %union.anon.1 }
%"struct.std::__cxx11::basic_string<char>::_Alloc_hider" = type { ptr }
%union.anon.1 = type { i64, [8 x i8] }
%"struct.std::_Rb_tree_key_compare" = type { %"struct.std::less" }
%"struct.std::less" = type { i8 }
%"struct.std::_Rb_tree_header" = type { %"struct.std::_Rb_tree_node_base", i64 }
%"struct.std::_Rb_tree_node_base" = type { i32, ptr, ptr, ptr }
%"struct.vcpkg::ExpectedT.77" = type <{ %union.anon.78, i8, [7 x i8] }>
%union.anon.78 = type { %"struct.vcpkg::ExpectedHolder.79" }
%"struct.vcpkg::ExpectedHolder.79" = type { %"class.std::map" }
%"class.std::map" = type { %"class.std::_Rb_tree.80" }
%"class.std::_Rb_tree.80" = type { %"struct.std::_Rb_tree<std::__cxx11::basic_string<char>, std::pair<const std::__cxx11::basic_string<char>, vcpkg::Version>, std::_Select1st<std::pair<const std::__cxx11::basic_string<char>, vcpkg::Version>>, std::less<void>>::_Rb_tree_impl" }
%"struct.std::_Rb_tree<std::__cxx11::basic_string<char>, std::pair<const std::__cxx11::basic_string<char>, vcpkg::Version>, std::_Select1st<std::pair<const std::__cxx11::basic_string<char>, vcpkg::Version>>, std::less<void>>::_Rb_tree_impl" = type { %"struct.std::_Rb_tree_key_compare", %"struct.std::_Rb_tree_header" }
%"struct.vcpkg::ExpectedT.234" = type <{ %union.anon.235, i8, [7 x i8] }>
%union.anon.235 = type { %"struct.vcpkg::ExpectedHolder.236" }
%"struct.vcpkg::ExpectedHolder.236" = type { %"struct.vcpkg::FileContents" }
%"struct.vcpkg::FileContents" = type { %"class.std::__cxx11::basic_string", %"class.std::__cxx11::basic_string" }
%class.anon.238 = type { ptr }

; Function Attrs: mustprogress uwtable
define internal void @"_ZZN12_GLOBAL__N_122load_baseline_versionsB5cxx11ERKN5vcpkg18ReadOnlyFilesystemERKNS0_4PathENS0_10StringViewEENK3$_0clB5cxx11EONS0_12FileContentsE"(ptr dead_on_unwind noalias writable sret(%"struct.vcpkg::ExpectedT.77") align 8 %0, ptr noundef nonnull align 8 dereferenceable(8) %1, ptr noundef nonnull align 8 dereferenceable(64) %2) #3 align 2 {
  %4 = alloca ptr, align 8
  %5 = alloca ptr, align 8
  %6 = alloca ptr, align 8
  %7 = alloca %"struct.vcpkg::StringView", align 8
  %8 = alloca %"struct.vcpkg::StringView", align 8
  %9 = alloca %"struct.vcpkg::StringView", align 8
  store ptr %0, ptr %4, align 8
  store ptr %1, ptr %5, align 8
  store ptr %2, ptr %6, align 8
  %10 = load ptr, ptr %5, align 8
  %11 = load ptr, ptr %6, align 8
  %12 = getelementptr inbounds %"struct.vcpkg::FileContents", ptr %11, i32 0, i32 0
  call void @_ZN5vcpkg10StringViewC1ERKNSt7__cxx1112basic_stringIcSt11char_traitsIcESaIcEEE(ptr noundef nonnull align 8 dereferenceable(16) %7, ptr noundef nonnull align 8 dereferenceable(32) %12) #2
  %13 = getelementptr inbounds %class.anon.238, ptr %10, i32 0, i32 0
  %14 = load ptr, ptr %13, align 8
  call void @llvm.memcpy.p0.p0.i64(ptr align 8 %8, ptr align 8 %14, i64 16, i1 false)
  %15 = load ptr, ptr %6, align 8
  %16 = getelementptr inbounds %"struct.vcpkg::FileContents", ptr %15, i32 0, i32 1
  call void @_ZN5vcpkg10StringViewC1ERKNSt7__cxx1112basic_stringIcSt11char_traitsIcESaIcEEE(ptr noundef nonnull align 8 dereferenceable(16) %9, ptr noundef nonnull align 8 dereferenceable(32) %16) #2
  %17 = getelementptr inbounds { ptr, i64 }, ptr %7, i32 0, i32 0
  %18 = load ptr, ptr %17, align 8
  %19 = getelementptr inbounds { ptr, i64 }, ptr %7, i32 0, i32 1
  %20 = load i64, ptr %19, align 8
  %21 = getelementptr inbounds { ptr, i64 }, ptr %8, i32 0, i32 0
  %22 = load ptr, ptr %21, align 8
  %23 = getelementptr inbounds { ptr, i64 }, ptr %8, i32 0, i32 1
  %24 = load i64, ptr %23, align 8
  call void @_ZN12_GLOBAL__N_123parse_baseline_versionsB5cxx11EN5vcpkg10StringViewES1_S1_(ptr dead_on_unwind writable sret(%"struct.vcpkg::ExpectedT.77") align 8 %0, ptr %18, i64 %20, ptr %22, i64 %24, ptr noundef byval(%"struct.vcpkg::StringView") align 8 %9)
  ret void
}

; Function Attrs: mustprogress uwtable
define internal void @"_ZSt13__invoke_implIN5vcpkg9ExpectedTISt3mapINSt7__cxx1112basic_stringIcSt11char_traitsIcESaIcEEENS0_7VersionESt4lessIvESaISt4pairIKS8_S9_EEENS0_15LocalizedStringEEERZN12_GLOBAL__N_122load_baseline_versionsERKNS0_18ReadOnlyFilesystemERKNS0_4PathENS0_10StringViewEE3$_0JNS0_12FileContentsEEET_St14__invoke_otherOT0_DpOT1_"(ptr dead_on_unwind noalias writable sret(%"struct.vcpkg::ExpectedT.77") align 8 %0, ptr noundef nonnull align 8 dereferenceable(8) %1, ptr noundef nonnull align 8 dereferenceable(64) %2) #3 {
  %4 = alloca ptr, align 8
  %5 = alloca ptr, align 8
  %6 = alloca ptr, align 8
  store ptr %0, ptr %4, align 8
  store ptr %1, ptr %5, align 8
  store ptr %2, ptr %6, align 8
  %7 = load ptr, ptr %5, align 8
  %8 = load ptr, ptr %6, align 8
  call void @"_ZZN12_GLOBAL__N_122load_baseline_versionsB5cxx11ERKN5vcpkg18ReadOnlyFilesystemERKNS0_4PathENS0_10StringViewEENK3$_0clB5cxx11EONS0_12FileContentsE"(ptr dead_on_unwind writable sret(%"struct.vcpkg::ExpectedT.77") align 8 %0, ptr noundef nonnull align 8 dereferenceable(8) %7, ptr noundef nonnull align 8 dereferenceable(64) %8)
  ret void
}

; Function Attrs: mustprogress uwtable
define internal void @"_ZSt8__invokeB5cxx11IRZN12_GLOBAL__N_122load_baseline_versionsB5cxx11ERKN5vcpkg18ReadOnlyFilesystemERKNS1_4PathENS1_10StringViewEE3$_0JNS1_12FileContentsEEENSt15__invoke_resultIT_JDpT0_EE4typeEOSD_DpOSE_"(ptr dead_on_unwind noalias writable sret(%"struct.vcpkg::ExpectedT.77") align 8 %0, ptr noundef nonnull align 8 dereferenceable(8) %1, ptr noundef nonnull align 8 dereferenceable(64) %2) #3 {
  %4 = alloca ptr, align 8
  %5 = alloca ptr, align 8
  %6 = alloca ptr, align 8
  store ptr %0, ptr %4, align 8
  store ptr %1, ptr %5, align 8
  store ptr %2, ptr %6, align 8
  %7 = load ptr, ptr %5, align 8
  %8 = load ptr, ptr %6, align 8
  call void @"_ZSt13__invoke_implIN5vcpkg9ExpectedTISt3mapINSt7__cxx1112basic_stringIcSt11char_traitsIcESaIcEEENS0_7VersionESt4lessIvESaISt4pairIKS8_S9_EEENS0_15LocalizedStringEEERZN12_GLOBAL__N_122load_baseline_versionsERKNS0_18ReadOnlyFilesystemERKNS0_4PathENS0_10StringViewEE3$_0JNS0_12FileContentsEEET_St14__invoke_otherOT0_DpOT1_"(ptr dead_on_unwind writable sret(%"struct.vcpkg::ExpectedT.77") align 8 %0, ptr noundef nonnull align 8 dereferenceable(8) %7, ptr noundef nonnull align 8 dereferenceable(64) %8)
  ret void
}

; Function Attrs: mustprogress uwtable
define linkonce_odr dso_local void @_ZN5vcpkg15LocalizedStringC2ERKS0_(ptr noundef nonnull align 8 dereferenceable(32) %0, ptr noundef nonnull align 8 dereferenceable(32) %1) unnamed_addr #3 comdat align 2 {
  %3 = alloca ptr, align 8
  %4 = alloca ptr, align 8
  store ptr %0, ptr %3, align 8
  store ptr %1, ptr %4, align 8
  %5 = load ptr, ptr %3, align 8
  %6 = getelementptr inbounds %"struct.vcpkg::LocalizedString", ptr %5, i32 0, i32 0
  %7 = load ptr, ptr %4, align 8
  %8 = getelementptr inbounds %"struct.vcpkg::LocalizedString", ptr %7, i32 0, i32 0
  call void @_ZNSt7__cxx1112basic_stringIcSt11char_traitsIcESaIcEEC1ERKS4_(ptr noundef nonnull align 8 dereferenceable(32) %6, ptr noundef nonnull align 8 dereferenceable(32) %8)
  ret void
}

; Function Attrs: mustprogress uwtable
define internal void @"_ZSt6invokeB5cxx11IRZN12_GLOBAL__N_122load_baseline_versionsB5cxx11ERKN5vcpkg18ReadOnlyFilesystemERKNS1_4PathENS1_10StringViewEE3$_0JNS1_12FileContentsEEENSt13invoke_resultIT_JDpT0_EE4typeEOSD_DpOSE_"(ptr dead_on_unwind noalias writable sret(%"struct.vcpkg::ExpectedT.77") align 8 %0, ptr noundef nonnull align 8 dereferenceable(8) %1, ptr noundef nonnull align 8 dereferenceable(64) %2) #3 {
  %4 = alloca ptr, align 8
  %5 = alloca ptr, align 8
  %6 = alloca ptr, align 8
  store ptr %0, ptr %4, align 8
  store ptr %1, ptr %5, align 8
  store ptr %2, ptr %6, align 8
  %7 = load ptr, ptr %5, align 8
  %8 = load ptr, ptr %6, align 8
  call void @"_ZSt8__invokeB5cxx11IRZN12_GLOBAL__N_122load_baseline_versionsB5cxx11ERKN5vcpkg18ReadOnlyFilesystemERKNS1_4PathENS1_10StringViewEE3$_0JNS1_12FileContentsEEENSt15__invoke_resultIT_JDpT0_EE4typeEOSD_DpOSE_"(ptr dead_on_unwind writable sret(%"struct.vcpkg::ExpectedT.77") align 8 %0, ptr noundef nonnull align 8 dereferenceable(8) %7, ptr noundef nonnull align 8 dereferenceable(64) %8)
  ret void
}

; Function Attrs: mustprogress nounwind uwtable
define linkonce_odr dso_local noundef ptr @_ZN5vcpkg14ExpectedHolderINS_12FileContentsEE3getEv(ptr noundef nonnull align 8 dereferenceable(64) %0) #1 comdat align 2 {
  %2 = alloca ptr, align 8
  store ptr %0, ptr %2, align 8
  %3 = load ptr, ptr %2, align 8
  %4 = getelementptr inbounds %"struct.vcpkg::ExpectedHolder.236", ptr %3, i32 0, i32 0
  ret ptr %4
}

; Function Attrs: mustprogress uwtable
define linkonce_odr dso_local void @_ZN5vcpkg9ExpectedTISt3mapINSt7__cxx1112basic_stringIcSt11char_traitsIcESaIcEEENS_7VersionESt4lessIvESaISt4pairIKS7_S8_EEENS_15LocalizedStringEEC2IRSG_TnNSt9enable_ifIXsr3stdE16is_convertible_vIT_SG_EEiE4typeELi0EEEOSL_NS_16ExpectedRightTagE(ptr noundef nonnull align 8 dereferenceable(49) %0, ptr noundef nonnull align 8 dereferenceable(32) %1) unnamed_addr #3 comdat align 2 {
  %3 = alloca ptr, align 8
  %4 = alloca ptr, align 8
  store ptr %0, ptr %3, align 8
  store ptr %1, ptr %4, align 8
  %5 = load ptr, ptr %3, align 8
  %6 = getelementptr inbounds %"struct.vcpkg::ExpectedT.77", ptr %5, i32 0, i32 0
  %7 = load ptr, ptr %4, align 8
  call void @_ZN5vcpkg15LocalizedStringC2ERKS0_(ptr noundef nonnull align 8 dereferenceable(32) %6, ptr noundef nonnull align 8 dereferenceable(32) %7)
  %8 = getelementptr inbounds %"struct.vcpkg::ExpectedT.77", ptr %5, i32 0, i32 1
  store i8 1, ptr %8, align 8
  ret void
}

; Function Attrs: mustprogress uwtable
define internal void @"_ZNO5vcpkg9ExpectedTINS_12FileContentsENS_15LocalizedStringEE4thenIZN12_GLOBAL__N_122load_baseline_versionsB5cxx11ERKNS_18ReadOnlyFilesystemERKNS_4PathENS_10StringViewEE3$_0JEEENSt13invoke_resultIT_JS1_DpT0_EE4typeESF_DpOSG_"(ptr dead_on_unwind noalias writable sret(%"struct.vcpkg::ExpectedT.77") align 8 %0, ptr noundef nonnull align 8 dereferenceable(65) %1, ptr %2) #3 align 2 {
  %4 = alloca ptr, align 8
  %5 = alloca %class.anon.238, align 8
  %6 = alloca ptr, align 8
  store ptr %0, ptr %4, align 8
  %7 = getelementptr inbounds %class.anon.238, ptr %5, i32 0, i32 0
  store ptr %2, ptr %7, align 8
  store ptr %1, ptr %6, align 8
  %8 = load ptr, ptr %6, align 8
  %9 = getelementptr inbounds %"struct.vcpkg::ExpectedT.234", ptr %8, i32 0, i32 1
  %10 = load i8, ptr %9, align 8
  %11 = trunc i8 %10 to i1
  br i1 %11, label %12, label %14

12:                                               ; preds = %3
  %13 = getelementptr inbounds %"struct.vcpkg::ExpectedT.234", ptr %8, i32 0, i32 0
  call void @_ZN5vcpkg9ExpectedTISt3mapINSt7__cxx1112basic_stringIcSt11char_traitsIcESaIcEEENS_7VersionESt4lessIvESaISt4pairIKS7_S8_EEENS_15LocalizedStringEEC2IRSG_TnNSt9enable_ifIXsr3stdE16is_convertible_vIT_SG_EEiE4typeELi0EEEOSL_NS_16ExpectedRightTagE(ptr noundef nonnull align 8 dereferenceable(49) %0, ptr noundef nonnull align 8 dereferenceable(32) %13)
  br label %17

14:                                               ; preds = %3
  %15 = getelementptr inbounds %"struct.vcpkg::ExpectedT.234", ptr %8, i32 0, i32 0
  %16 = call noundef ptr @_ZN5vcpkg14ExpectedHolderINS_12FileContentsEE3getEv(ptr noundef nonnull align 8 dereferenceable(64) %15) #2
  call void @"_ZSt6invokeB5cxx11IRZN12_GLOBAL__N_122load_baseline_versionsB5cxx11ERKN5vcpkg18ReadOnlyFilesystemERKNS1_4PathENS1_10StringViewEE3$_0JNS1_12FileContentsEEENSt13invoke_resultIT_JDpT0_EE4typeEOSD_DpOSE_"(ptr dead_on_unwind writable sret(%"struct.vcpkg::ExpectedT.77") align 8 %0, ptr noundef nonnull align 8 dereferenceable(8) %5, ptr noundef nonnull align 8 dereferenceable(64) %16)
  br label %17

17:                                               ; preds = %14, %12
  ret void
}

; Function Attrs: mustprogress uwtable
define internal void @_ZN12_GLOBAL__N_122load_baseline_versionsB5cxx11ERKN5vcpkg18ReadOnlyFilesystemERKNS0_4PathENS0_10StringViewE(ptr dead_on_unwind noalias writable sret(%"struct.vcpkg::ExpectedT.77") align 8 %0, ptr noundef nonnull align 8 dereferenceable(8) %1, ptr noundef nonnull align 8 dereferenceable(32) %2, ptr %3, i64 %4) #3 personality ptr @__gxx_personality_v0 {
  %6 = alloca ptr, align 8
  %7 = alloca %"struct.vcpkg::StringView", align 8
  %8 = alloca ptr, align 8
  %9 = alloca ptr, align 8
  %10 = alloca %"struct.vcpkg::ExpectedT.234", align 8
  %11 = alloca %class.anon.238, align 8
  %12 = alloca ptr, align 8
  %13 = alloca i32, align 4
  store ptr %0, ptr %6, align 8
  %14 = getelementptr inbounds { ptr, i64 }, ptr %7, i32 0, i32 0
  store ptr %3, ptr %14, align 8
  %15 = getelementptr inbounds { ptr, i64 }, ptr %7, i32 0, i32 1
  store i64 %4, ptr %15, align 8
  store ptr %1, ptr %8, align 8
  store ptr %2, ptr %9, align 8
  %16 = load ptr, ptr %8, align 8
  %17 = load ptr, ptr %9, align 8
  call void @_ZNK5vcpkg18ReadOnlyFilesystem17try_read_contentsERKNS_4PathE(ptr dead_on_unwind writable sret(%"struct.vcpkg::ExpectedT.234") align 8 %10, ptr noundef nonnull align 8 dereferenceable(8) %16, ptr noundef nonnull align 8 dereferenceable(32) %17)
  %18 = getelementptr inbounds %class.anon.238, ptr %11, i32 0, i32 0
  store ptr %7, ptr %18, align 8
  %19 = getelementptr inbounds %class.anon.238, ptr %11, i32 0, i32 0
  %20 = load ptr, ptr %19, align 8
  invoke void @"_ZNO5vcpkg9ExpectedTINS_12FileContentsENS_15LocalizedStringEE4thenIZN12_GLOBAL__N_122load_baseline_versionsB5cxx11ERKNS_18ReadOnlyFilesystemERKNS_4PathENS_10StringViewEE3$_0JEEENSt13invoke_resultIT_JS1_DpT0_EE4typeESF_DpOSG_"(ptr dead_on_unwind writable sret(%"struct.vcpkg::ExpectedT.77") align 8 %0, ptr noundef nonnull align 8 dereferenceable(65) %10, ptr %20)
          to label %21 unwind label %22

21:                                               ; preds = %5
  call void @_ZN5vcpkg9ExpectedTINS_12FileContentsENS_15LocalizedStringEED2Ev(ptr noundef nonnull align 8 dereferenceable(65) %10) #2
  ret void

22:                                               ; preds = %5
  %23 = landingpad { ptr, i32 }
          cleanup
  %24 = extractvalue { ptr, i32 } %23, 0
  store ptr %24, ptr %12, align 8
  %25 = extractvalue { ptr, i32 } %23, 1
  store i32 %25, ptr %13, align 4
  call void @_ZN5vcpkg9ExpectedTINS_12FileContentsENS_15LocalizedStringEED2Ev(ptr noundef nonnull align 8 dereferenceable(65) %10) #2
  br label %26

26:                                               ; preds = %22
  %27 = load ptr, ptr %12, align 8
  %28 = load i32, ptr %13, align 4
  %29 = insertvalue { ptr, i32 } poison, ptr %27, 0
  %30 = insertvalue { ptr, i32 } %29, i32 %28, 1
  resume { ptr, i32 } %30
}