; Function Attrs: mustprogress uwtable
define internal fastcc void @_ZN12_GLOBAL__N_122load_baseline_versionsB5cxx11ERKN5vcpkg18ReadOnlyFilesystemERKNS0_4PathENS0_10StringViewE(ptr dead_on_unwind noalias writable align 8 %0, ptr noundef nonnull align 8 dereferenceable(8) %1, ptr noundef nonnull align 8 dereferenceable(32) %2, ptr %3, i64 %4) unnamed_addr #2 personality ptr @__gxx_personality_v0 {
  %6 = alloca %"struct.vcpkg::StringView", align 8
  %7 = alloca %"struct.vcpkg::StringView", align 8
  %8 = alloca %"struct.vcpkg::ExpectedT.234", align 8
  call void @_ZNK5vcpkg18ReadOnlyFilesystem17try_read_contentsERKNS_4PathE(ptr dead_on_unwind nonnull writable sret(%"struct.vcpkg::ExpectedT.234") align 8 %8, ptr noundef nonnull align 8 dereferenceable(8) %1, ptr noundef nonnull align 8 dereferenceable(32) %2)
  call void @llvm.experimental.noalias.scope.decl(metadata !49)
  %9 = getelementptr inbounds i8, ptr %8, i64 64
  %10 = load i8, ptr %9, align 8, !noalias !49
  %11 = and i8 %10, 1
  %.not.i = icmp eq i8 %11, 0
  br i1 %.not.i, label %14, label %12

12:                                               ; preds = %5
  invoke void @_ZNSt7__cxx1112basic_stringIcSt11char_traitsIcESaIcEEC1ERKS4_(ptr noundef nonnull align 8 dereferenceable(32) %0, ptr noundef nonnull align 8 dereferenceable(32) %8)
          to label %.noexc unwind label %24

.noexc:                                           ; preds = %12
  %13 = getelementptr inbounds i8, ptr %0, i64 48
  store i8 1, ptr %13, align 8, !alias.scope !49
  br label %"_ZNO5vcpkg9ExpectedTINS_12FileContentsENS_15LocalizedStringEE4thenIZN12_GLOBAL__N_122load_baseline_versionsB5cxx11ERKNS_18ReadOnlyFilesystemERKNS_4PathENS_10StringViewEE3$_0JEEENSt13invoke_resultIT_JS1_DpT0_EE4typeESF_DpOSG_.exit"

14:                                               ; preds = %5
  call void @llvm.lifetime.start.p0(i64 16, ptr nonnull %6), !noalias !52
  call void @llvm.lifetime.start.p0(i64 16, ptr nonnull %7), !noalias !52
  call void @_ZN5vcpkg10StringViewC1ERKNSt7__cxx1112basic_stringIcSt11char_traitsIcESaIcEEE(ptr noundef nonnull align 8 dereferenceable(16) %6, ptr noundef nonnull align 8 dereferenceable(32) %8) #26, !noalias !59
  %15 = getelementptr inbounds i8, ptr %8, i64 32
  call void @_ZN5vcpkg10StringViewC1ERKNSt7__cxx1112basic_stringIcSt11char_traitsIcESaIcEEE(ptr noundef nonnull align 8 dereferenceable(16) %7, ptr noundef nonnull align 8 dereferenceable(32) %15) #26, !noalias !59
  %16 = load ptr, ptr %6, align 8, !noalias !59
  %17 = getelementptr inbounds i8, ptr %6, i64 8
  %18 = load i64, ptr %17, align 8, !noalias !59
  %.val.i.i.i.i.i = load ptr, ptr %7, align 8, !noalias !59
  %19 = getelementptr inbounds i8, ptr %7, i64 8
  %.val3.i.i.i.i.i = load i64, ptr %19, align 8, !noalias !59
  invoke fastcc void @_ZN12_GLOBAL__N_123parse_baseline_versionsB5cxx11EN5vcpkg10StringViewES1_S1_(ptr dead_on_unwind noalias writable align 8 %0, ptr %16, i64 %18, ptr %3, i64 %4, ptr %.val.i.i.i.i.i, i64 %.val3.i.i.i.i.i)
          to label %.noexc3 unwind label %24

.noexc3:                                          ; preds = %14
  call void @llvm.lifetime.end.p0(i64 16, ptr nonnull %6), !noalias !52
  call void @llvm.lifetime.end.p0(i64 16, ptr nonnull %7), !noalias !52
  br label %"_ZNO5vcpkg9ExpectedTINS_12FileContentsENS_15LocalizedStringEE4thenIZN12_GLOBAL__N_122load_baseline_versionsB5cxx11ERKNS_18ReadOnlyFilesystemERKNS_4PathENS_10StringViewEE3$_0JEEENSt13invoke_resultIT_JS1_DpT0_EE4typeESF_DpOSG_.exit"

"_ZNO5vcpkg9ExpectedTINS_12FileContentsENS_15LocalizedStringEE4thenIZN12_GLOBAL__N_122load_baseline_versionsB5cxx11ERKNS_18ReadOnlyFilesystemERKNS_4PathENS_10StringViewEE3$_0JEEENSt13invoke_resultIT_JS1_DpT0_EE4typeESF_DpOSG_.exit": ; preds = %.noexc3, %.noexc
  %20 = load i8, ptr %9, align 8
  %21 = and i8 %20, 1
  %.not.i4 = icmp eq i8 %21, 0
  br i1 %.not.i4, label %22, label %_ZN5vcpkg9ExpectedTINS_12FileContentsENS_15LocalizedStringEED2Ev.exit

22:                                               ; preds = %"_ZNO5vcpkg9ExpectedTINS_12FileContentsENS_15LocalizedStringEE4thenIZN12_GLOBAL__N_122load_baseline_versionsB5cxx11ERKNS_18ReadOnlyFilesystemERKNS_4PathENS_10StringViewEE3$_0JEEENSt13invoke_resultIT_JS1_DpT0_EE4typeESF_DpOSG_.exit"
  %23 = getelementptr inbounds i8, ptr %8, i64 32
  call void @_ZNSt7__cxx1112basic_stringIcSt11char_traitsIcESaIcEED1Ev(ptr noundef nonnull align 8 dereferenceable(32) %23) #26
  br label %_ZN5vcpkg9ExpectedTINS_12FileContentsENS_15LocalizedStringEED2Ev.exit

_ZN5vcpkg9ExpectedTINS_12FileContentsENS_15LocalizedStringEED2Ev.exit: ; preds = %"_ZNO5vcpkg9ExpectedTINS_12FileContentsENS_15LocalizedStringEE4thenIZN12_GLOBAL__N_122load_baseline_versionsB5cxx11ERKNS_18ReadOnlyFilesystemERKNS_4PathENS_10StringViewEE3$_0JEEENSt13invoke_resultIT_JS1_DpT0_EE4typeESF_DpOSG_.exit", %22
  call void @_ZNSt7__cxx1112basic_stringIcSt11char_traitsIcESaIcEED1Ev(ptr noundef nonnull align 8 dereferenceable(32) %8) #26
  ret void

24:                                               ; preds = %14, %12
  %25 = landingpad { ptr, i32 }
          cleanup
  call void @_ZN5vcpkg9ExpectedTINS_12FileContentsENS_15LocalizedStringEED2Ev(ptr noundef nonnull align 8 dereferenceable(65) %8) #26
  resume { ptr, i32 } %25
}